(dp1
S'files'
p2
(dp3
S'_Library_Python_2_7_site-packages_psycopg2___init__'
p4
(dp5
S'index'
p6
(dp7
S'html_filename'
p8
S'_Library_Python_2_7_site-packages_psycopg2___init__.html'
p9
sS'name'
p10
S'/Library/Python/2.7/site-packages/psycopg2/__init__'
p11
sS'nums'
p12
ccopy_reg
_reconstructor
p13
(ccoverage.results
Numbers
p14
c__builtin__
object
p15
NtRp16
(dp17
S'n_files'
p18
I1
sS'n_branches'
p19
I22
sS'n_statements'
p20
I50
sS'n_excluded'
p21
I0
sS'n_partial_branches'
p22
I11
sS'n_missing'
p23
I8
sS'n_missing_branches'
p24
I11
sbssS'hash'
p25
S'\x1e\x0b\xd5\x85\x7f\xe5\x14\xb2ie\xa9l/\xe0`l'
p26
ssS'_Library_Python_2_7_site-packages_PIL__binary'
p27
(dp28
S'index'
p29
(dp30
S'html_filename'
p31
S'_Library_Python_2_7_site-packages_PIL__binary.html'
p32
sS'name'
p33
S'/Library/Python/2.7/site-packages/PIL/_binary'
p34
sS'nums'
p35
g13
(g14
g15
NtRp36
(dp37
g18
I1
sg19
I0
sg20
I25
sg21
I0
sg22
I0
sg23
I14
sg24
I0
sbssS'hash'
p38
S'l\xf0]x\x9a&\x85\xc3\x7f\x96\x0f\xc1\xc0s\x1e\x8b'
p39
ssS'browser'
p40
(dp41
g29
(dp42
S'html_filename'
p43
S'browser.html'
p44
sS'name'
p45
S'browser'
p46
sS'nums'
p47
g13
(g14
g15
NtRp48
(dp49
g18
I1
sg19
I0
sg20
I207
sg21
I0
sg22
I0
sg23
I7
sg24
I0
sbssg38
S'"\xf3a\x95l\xe3\x89\xa2\x8c@RQ\x97\xd4\xc3\xc6'
p50
ssS'_Library_Python_2_7_site-packages_psycopg2__json'
p51
(dp52
g6
(dp53
g8
S'_Library_Python_2_7_site-packages_psycopg2__json.html'
p54
sg10
S'/Library/Python/2.7/site-packages/psycopg2/_json'
p55
sg12
g13
(g14
g15
NtRp56
(dp57
g18
I1
sg19
I26
sg20
I67
sg21
I0
sg22
I6
sg23
I36
sg24
I20
sbssg25
S'\xb3\xa6\xe1"\x14\x14\x9e\x85\xf0"\r\x86\xde\xc023'
p58
ssS'_Library_Python_2_7_site-packages_psycopg2__range'
p59
(dp60
g6
(dp61
g8
S'_Library_Python_2_7_site-packages_psycopg2__range.html'
p62
sg10
S'/Library/Python/2.7/site-packages/psycopg2/_range'
p63
sg12
g13
(g14
g15
NtRp64
(dp65
g18
I1
sg19
I104
sg20
I212
sg21
I0
sg22
I7
sg23
I128
sg24
I95
sbssg25
S">\xbb\xc5\xdf'3\xab\xea'\x81\xf8\x1cm:;i"
p66
ssS'database'
p67
(dp68
g6
(dp69
g8
S'database.html'
p70
sg10
S'database'
p71
sg12
g13
(g14
g15
NtRp72
(dp73
g18
I1
sg19
I42
sg20
I83
sg21
I0
sg22
I2
sg23
I2
sg24
I2
sbssg25
S'9\xd7y\x1ft\xd9\x0f\x925\xb8\xcb-y5\xfb\xd1'
p74
ssS'practice'
p75
(dp76
g29
(dp77
g31
S'practice.html'
p78
sg33
g75
sg35
g13
(g14
g15
NtRp79
(dp80
g18
I1
sg19
I0
sg20
I13
sg21
I0
sg22
I0
sg23
I0
sg24
I0
sbssg38
S'M\x899\xec!\xf2wb\x84\xe8\x7f0\xbe\xf63\xe1'
p81
ssS'lists'
p82
(dp83
g29
(dp84
g31
S'lists.html'
p85
sg33
g82
sg35
g13
(g14
g15
NtRp86
(dp87
g18
I1
sg19
I0
sg20
I12
sg21
I0
sg22
I0
sg23
I0
sg24
I0
sbssg38
S'\x8a%2L\x19>\xe4L\xb7?\t"u\xb9\xf4\x05'
p88
ssS'nickdatabasetest'
p89
(dp90
S'index'
p91
(dp92
g8
S'nickdatabasetest.html'
p93
sg10
g89
sg12
g13
(g14
g15
NtRp94
(dp95
g18
I1
sg19
I18
sg20
I44
sg21
I0
sg22
I1
sg23
I0
sg24
I1
sbssS'hash'
p96
S'\x00\xcaN\xe3\xc8\xe6\xed\xef\xc2\xf7\xd4.\xc1T\xcf\xdb'
p97
ssS'application'
p98
(dp99
g29
(dp100
g43
S'application.html'
p101
sg45
S'application'
p102
sg47
g13
(g14
g15
NtRp103
(dp104
g18
I1
sg19
I0
sg20
I67
sg21
I0
sg22
I0
sg23
I1
sg24
I0
sbssg38
S'\x8bX\x90\x00\x1e\xad\xc4,H9\x9fW\xb5}\xd7\x8d'
p105
ssS'_usr_local_Cellar_pyqt_4_10_3_lib_python2_7_site-packages_PyQt4___init__'
p106
(dp107
g29
(dp108
g31
S'_usr_local_Cellar_pyqt_4_10_3_lib_python2_7_site-packages_PyQt4___init__.html'
p109
sg33
S'/usr/local/Cellar/pyqt/4.10.3/lib/python2.7/site-packages/PyQt4/__init__'
p110
sg35
g13
(g14
g15
NtRp111
(dp112
g18
I1
sg19
I0
sg20
I0
sg21
I0
sg22
I0
sg23
I0
sg24
I0
sbssg38
S'\x9bH\x81\xb7\xf8N8\x9f\x08\xc9\x9ea\xdcW\x99\xea'
p113
ssS'_Library_Python_2_7_site-packages_PIL___init__'
p114
(dp115
g29
(dp116
g31
S'_Library_Python_2_7_site-packages_PIL___init__.html'
p117
sg33
S'/Library/Python/2.7/site-packages/PIL/__init__'
p118
sg35
g13
(g14
g15
NtRp119
(dp120
g18
I1
sg19
I0
sg20
I3
sg21
I0
sg22
I0
sg23
I0
sg24
I0
sbssg38
S'=+\xd9C\xda\xb0\xe0\x87YL\xd2\x95\x0e\xab\xe5\xb7'
p121
ssS'_Library_Python_2_7_site-packages_psycopg2_tz'
p122
(dp123
g6
(dp124
g8
S'_Library_Python_2_7_site-packages_psycopg2_tz.html'
p125
sg10
S'/Library/Python/2.7/site-packages/psycopg2/tz'
p126
sg12
g13
(g14
g15
NtRp127
(dp128
g18
I1
sg19
I14
sg20
I61
sg21
I0
sg22
I1
sg23
I37
sg24
I13
sbssg25
S'\xa2\x12\xed\x02V\x1d^\xdc\xaf\x8c\x89L\x9b\xc1w\xb3'
p129
ssS'_Library_Python_2_7_site-packages_PIL_ImageMode'
p130
(dp131
g29
(dp132
g31
S'_Library_Python_2_7_site-packages_PIL_ImageMode.html'
p133
sg33
S'/Library/Python/2.7/site-packages/PIL/ImageMode'
p134
sg35
g13
(g14
g15
NtRp135
(dp136
g18
I1
sg19
I0
sg20
I20
sg21
I0
sg22
I0
sg23
I15
sg24
I0
sbssg38
S'=cos\x8a\xcb\xf6\xfc?\x0c\xcd\x15\xedz\xdc\x80'
p137
ssS'main'
p138
(dp139
S'index'
p140
(dp141
g43
S'main.html'
p142
sg45
g138
sg47
g13
(g14
g15
NtRp143
(dp144
g18
I1
sg19
I0
sg20
I13
sg21
I0
sg22
I0
sg23
I0
sg24
I0
sbssS'hash'
p145
S'M\x899\xec!\xf2wb\x84\xe8\x7f0\xbe\xf63\xe1'
p146
ssS'uploader'
p147
(dp148
g29
(dp149
g31
S'uploader.html'
p150
sg33
g147
sg35
g13
(g14
g15
NtRp151
(dp152
g18
I1
sg19
I0
sg20
I124
sg21
I0
sg22
I0
sg23
I9
sg24
I0
sbssg38
S'\x10\xa0\xbb\x85\xeb\x06\xa6L\xb2[y\xd0O\xc99\x84'
p153
ssS'_Library_Python_2_7_site-packages_PIL__util'
p154
(dp155
g29
(dp156
g31
S'_Library_Python_2_7_site-packages_PIL__util.html'
p157
sg33
S'/Library/Python/2.7/site-packages/PIL/_util'
p158
sg35
g13
(g14
g15
NtRp159
(dp160
g18
I1
sg19
I0
sg20
I12
sg21
I0
sg22
I0
sg23
I7
sg24
I0
sbssg38
S"\x11.\xf3\xa9'\xd1W1(\x12\xf0C]4\xa3\xf8"
p161
ssS'_Library_Python_2_7_site-packages_psycopg2_extensions'
p162
(dp163
g6
(dp164
g8
S'_Library_Python_2_7_site-packages_psycopg2_extensions.html'
p165
sg10
S'/Library/Python/2.7/site-packages/psycopg2/extensions'
p166
sg12
g13
(g14
g15
NtRp167
(dp168
g18
I1
sg19
I10
sg20
I91
sg21
I0
sg22
I1
sg23
I24
sg24
I7
sbssg25
S'TU?\xe6vV-\xdb\xd4\x0b\x1bU$\x0ff\xac'
p169
ssS'_Library_Python_2_7_site-packages_PIL_Image'
p170
(dp171
g29
(dp172
g31
S'_Library_Python_2_7_site-packages_PIL_Image.html'
p173
sg33
S'/Library/Python/2.7/site-packages/PIL/Image'
p174
sg35
g13
(g14
g15
NtRp175
(dp176
g18
I1
sg19
I0
sg20
I835
sg21
I0
sg22
I0
sg23
I670
sg24
I0
sbssg38
S'01p\xec(\xb8B7Q\xfd\x07\xbdC\x87\xbb]'
p177
sssS'version'
p178
S'3.7.1'
p179
sS'settings'
p180
S'\x98\xa8x\xfe"r\xb5K\x98\xb1N\\\x99\x9e\xf3\xe5'
p181
sS'format'
p182
I1
s.